target datalayout = "e-m:e-p270:32:32-p271:32:32-p272:64:64-i64:64-i128:128-f80:128-n8:16:32:64-S128"
target triple = "x86_64-pc-linux-gnu"

%class.btQuantizedBvh = type <{ ptr, %class.btVector3, %class.btVector3, %class.btVector3, i32, i32, i8, [7 x i8], %class.btAlignedObjectArray, %class.btAlignedObjectArray, %class.btAlignedObjectArray.0, %class.btAlignedObjectArray.0, i32, [4 x i8], %class.btAlignedObjectArray.2, i32, [4 x i8] }>
%class.btVector3 = type { [4 x float] }
%class.btAlignedObjectArray = type <{ [4 x i8], i32, i32, [4 x i8], ptr, i8, [7 x i8] }>
%class.btAlignedObjectArray.0 = type <{ [4 x i8], i32, i32, [4 x i8], ptr, i8, [7 x i8] }>
%class.btAlignedObjectArray.2 = type <{ [4 x i8], i32, i32, [4 x i8], ptr, i8, [7 x i8] }>

; Function Attrs: mustprogress nounwind uwtable
define dso_local noundef i32 @_ZN14btQuantizedBvh32getAlignmentSerializationPaddingEv() #1 align 2 {
  ret i32 0
}

; Function Attrs: mustprogress nounwind uwtable
define dso_local noundef i32 @_ZNK14btQuantizedBvh28calculateSerializeBufferSizeEv(ptr noundef nonnull align 8 dereferenceable(244) %0) #1 align 2 {
  %2 = alloca i32, align 4
  %3 = alloca ptr, align 8
  %4 = alloca i32, align 4
  %5 = alloca i32, align 4
  store ptr %0, ptr %3, align 8, !tbaa !12
  %6 = load ptr, ptr %3, align 8
  call void @llvm.lifetime.start.p0(i64 4, ptr %4) #14
  %7 = call noundef i32 @_ZN14btQuantizedBvh32getAlignmentSerializationPaddingEv()
  %8 = zext i32 %7 to i64
  %9 = add i64 248, %8
  %10 = trunc i64 %9 to i32
  store i32 %10, ptr %4, align 4, !tbaa !9
  %11 = getelementptr inbounds nuw %class.btQuantizedBvh, ptr %6, i32 0, i32 15
  %12 = load i32, ptr %11, align 8, !tbaa !32
  %13 = sext i32 %12 to i64
  %14 = mul i64 32, %13
  %15 = load i32, ptr %4, align 4, !tbaa !9
  %16 = zext i32 %15 to i64
  %17 = add i64 %16, %14
  %18 = trunc i64 %17 to i32
  store i32 %18, ptr %4, align 4, !tbaa !9
  %19 = getelementptr inbounds nuw %class.btQuantizedBvh, ptr %6, i32 0, i32 6
  %20 = load i8, ptr %19, align 8, !tbaa !30, !range !45, !noundef !46
  %21 = trunc i8 %20 to i1
  br i1 %21, label %22, label %31

22:                                               ; preds = %1
  %23 = load i32, ptr %4, align 4, !tbaa !9
  %24 = zext i32 %23 to i64
  %25 = getelementptr inbounds nuw %class.btQuantizedBvh, ptr %6, i32 0, i32 5
  %26 = load i32, ptr %25, align 4, !tbaa !47
  %27 = sext i32 %26 to i64
  %28 = mul i64 %27, 16
  %29 = add i64 %24, %28
  %30 = trunc i64 %29 to i32
  store i32 %30, ptr %2, align 4
  store i32 1, ptr %5, align 4
  br label %40

31:                                               ; preds = %1
  %32 = load i32, ptr %4, align 4, !tbaa !9
  %33 = zext i32 %32 to i64
  %34 = getelementptr inbounds nuw %class.btQuantizedBvh, ptr %6, i32 0, i32 5
  %35 = load i32, ptr %34, align 4, !tbaa !47
  %36 = sext i32 %35 to i64
  %37 = mul i64 %36, 64
  %38 = add i64 %33, %37
  %39 = trunc i64 %38 to i32
  store i32 %39, ptr %2, align 4
  store i32 1, ptr %5, align 4
  br label %40

40:                                               ; preds = %31, %22
  call void @llvm.lifetime.end.p0(i64 4, ptr %4) #14
  %41 = load i32, ptr %2, align 4
  ret i32 %41
}